target datalayout = "e-m:e-p270:32:32-p271:32:32-p272:64:64-i64:64-i128:128-f80:128-n8:16:32:64-S128"
target triple = "x86_64-pc-linux-gnu"

%struct._zend_object_handlers = type { i32, ptr, ptr, ptr, ptr, ptr, ptr, ptr, ptr, ptr, ptr, ptr, ptr, ptr, ptr, ptr, ptr, ptr, ptr, ptr, ptr, ptr, ptr, ptr, ptr }
%struct._zval_struct = type { %union._zend_value, %union.anon, %union.anon.2 }
%union._zend_value = type { i64 }
%union.anon = type { i32 }
%union.anon.2 = type { i32 }
%union._zend_function = type { %struct._zend_op_array }
%struct._zend_op_array = type { i8, [3 x i8], i32, ptr, ptr, ptr, i32, i32, ptr, ptr, ptr, ptr, i32, ptr, i32, i32, i32, ptr, ptr, ptr, ptr, ptr, i32, i32, ptr, ptr, ptr, i32, i32, i32, i32, ptr, ptr, [6 x ptr] }
%struct._zend_refcounted_h = type { i32, %union.anon.4 }
%union.anon.4 = type { i32 }
%struct._zend_closure = type { %struct._zend_object, %union._zend_function, %struct._zval_struct, ptr, ptr }
%struct._zend_object = type { %struct._zend_refcounted_h, i32, i32, ptr, ptr, ptr, [1 x %struct._zval_struct] }
%struct.anon.3 = type { i8, [3 x i8], i32, ptr, ptr, ptr, i32, i32, ptr, ptr, ptr, ptr, i32, ptr }
%struct._zend_string = type { %struct._zend_refcounted_h, i64, i64, [1 x i8] }
%struct.anon.0 = type { i8, i8, %union.anon.1 }
%union.anon.1 = type { i16 }

; Function Attrs: alwaysinline nounwind uwtable
define internal zeroext i1 @zend_string_equal_content(ptr noundef %0, ptr noundef %1) #6 {
  %3 = alloca ptr, align 8
  %4 = alloca ptr, align 8
  store ptr %0, ptr %3, align 8, !tbaa !52
  store ptr %1, ptr %4, align 8, !tbaa !52
  %5 = load ptr, ptr %3, align 8, !tbaa !52
  %6 = getelementptr inbounds nuw %struct._zend_string, ptr %5, i32 0, i32 2
  %7 = load i64, ptr %6, align 8, !tbaa !119
  %8 = load ptr, ptr %4, align 8, !tbaa !52
  %9 = getelementptr inbounds nuw %struct._zend_string, ptr %8, i32 0, i32 2
  %10 = load i64, ptr %9, align 8, !tbaa !119
  %11 = icmp eq i64 %7, %10
  br i1 %11, label %12, label %16

12:                                               ; preds = %2
  %13 = load ptr, ptr %3, align 8, !tbaa !52
  %14 = load ptr, ptr %4, align 8, !tbaa !52
  %15 = call zeroext i1 @zend_string_equal_val(ptr noundef %13, ptr noundef %14)
  br label %16

16:                                               ; preds = %12, %2
  %17 = phi i1 [ false, %2 ], [ %15, %12 ]
  ret i1 %17
}

; Function Attrs: alwaysinline nounwind uwtable
define internal zeroext i1 @zend_string_equals(ptr noundef %0, ptr noundef %1) #6 {
  %3 = alloca ptr, align 8
  %4 = alloca ptr, align 8
  store ptr %0, ptr %3, align 8, !tbaa !52
  store ptr %1, ptr %4, align 8, !tbaa !52
  %5 = load ptr, ptr %3, align 8, !tbaa !52
  %6 = load ptr, ptr %4, align 8, !tbaa !52
  %7 = icmp eq ptr %5, %6
  br i1 %7, label %12, label %8

8:                                                ; preds = %2
  %9 = load ptr, ptr %3, align 8, !tbaa !52
  %10 = load ptr, ptr %4, align 8, !tbaa !52
  %11 = call zeroext i1 @zend_string_equal_content(ptr noundef %9, ptr noundef %10)
  br label %12

12:                                               ; preds = %8, %2
  %13 = phi i1 [ true, %2 ], [ %11, %8 ]
  ret i1 %13
}

; Function Attrs: alwaysinline nounwind uwtable
define internal zeroext i8 @zval_get_type(ptr noundef %0) #6 {
  %2 = alloca ptr, align 8
  store ptr %0, ptr %2, align 8, !tbaa !9
  %3 = load ptr, ptr %2, align 8, !tbaa !9
  %4 = getelementptr inbounds nuw %struct._zval_struct, ptr %3, i32 0, i32 1
  %5 = getelementptr inbounds nuw %struct.anon.0, ptr %4, i32 0, i32 0
  %6 = load i8, ptr %5, align 8, !tbaa !20
  ret i8 %6
}

; Function Attrs: nounwind uwtable
define internal i32 @zend_closure_compare(ptr noundef %0, ptr noundef %1) #0 {
  %3 = alloca i32, align 4
  %4 = alloca ptr, align 8
  %5 = alloca ptr, align 8
  %6 = alloca ptr, align 8
  %7 = alloca ptr, align 8
  %8 = alloca i32, align 4
  store ptr %0, ptr %4, align 8, !tbaa !9
  store ptr %1, ptr %5, align 8, !tbaa !9
  %9 = load ptr, ptr %4, align 8, !tbaa !9
  %10 = call zeroext i8 @zval_get_type(ptr noundef %9)
  %11 = zext i8 %10 to i32
  %12 = icmp ne i32 %11, 8
  br i1 %12, label %34, label %13

13:                                               ; preds = %2
  %14 = load ptr, ptr %5, align 8, !tbaa !9
  %15 = call zeroext i8 @zval_get_type(ptr noundef %14)
  %16 = zext i8 %15 to i32
  %17 = icmp ne i32 %16, 8
  br i1 %17, label %34, label %18

18:                                               ; preds = %13
  %19 = load ptr, ptr %4, align 8, !tbaa !9
  %20 = getelementptr inbounds nuw %struct._zval_struct, ptr %19, i32 0, i32 0
  %21 = load ptr, ptr %20, align 8, !tbaa !20
  %22 = getelementptr inbounds nuw %struct._zend_object, ptr %21, i32 0, i32 4
  %23 = load ptr, ptr %22, align 8, !tbaa !121
  %24 = getelementptr inbounds nuw %struct._zend_object_handlers, ptr %23, i32 0, i32 23
  %25 = load ptr, ptr %24, align 8, !tbaa !114
  %26 = load ptr, ptr %5, align 8, !tbaa !9
  %27 = getelementptr inbounds nuw %struct._zval_struct, ptr %26, i32 0, i32 0
  %28 = load ptr, ptr %27, align 8, !tbaa !20
  %29 = getelementptr inbounds nuw %struct._zend_object, ptr %28, i32 0, i32 4
  %30 = load ptr, ptr %29, align 8, !tbaa !121
  %31 = getelementptr inbounds nuw %struct._zend_object_handlers, ptr %30, i32 0, i32 23
  %32 = load ptr, ptr %31, align 8, !tbaa !114
  %33 = icmp ne ptr %25, %32
  br i1 %33, label %34, label %38

34:                                               ; preds = %18, %13, %2
  %35 = load ptr, ptr %4, align 8, !tbaa !9
  %36 = load ptr, ptr %5, align 8, !tbaa !9
  %37 = call i32 @zend_std_compare_objects(ptr noundef %35, ptr noundef %36)
  store i32 %37, ptr %3, align 4
  br label %131

38:                                               ; preds = %18
  call void @llvm.lifetime.start.p0(i64 8, ptr %6) #11
  %39 = load ptr, ptr %4, align 8, !tbaa !9
  %40 = getelementptr inbounds nuw %struct._zval_struct, ptr %39, i32 0, i32 0
  %41 = load ptr, ptr %40, align 8, !tbaa !20
  store ptr %41, ptr %6, align 8, !tbaa !40
  call void @llvm.lifetime.start.p0(i64 8, ptr %7) #11
  %42 = load ptr, ptr %5, align 8, !tbaa !9
  %43 = getelementptr inbounds nuw %struct._zval_struct, ptr %42, i32 0, i32 0
  %44 = load ptr, ptr %43, align 8, !tbaa !20
  store ptr %44, ptr %7, align 8, !tbaa !40
  %45 = load ptr, ptr %6, align 8, !tbaa !40
  %46 = getelementptr inbounds nuw %struct._zend_closure, ptr %45, i32 0, i32 1
  %47 = getelementptr inbounds nuw %struct.anon.3, ptr %46, i32 0, i32 2
  %48 = load i32, ptr %47, align 4, !tbaa !20
  %49 = and i32 %48, 8388608
  %50 = icmp ne i32 %49, 0
  br i1 %50, label %51, label %58

51:                                               ; preds = %38
  %52 = load ptr, ptr %7, align 8, !tbaa !40
  %53 = getelementptr inbounds nuw %struct._zend_closure, ptr %52, i32 0, i32 1
  %54 = getelementptr inbounds nuw %struct.anon.3, ptr %53, i32 0, i32 2
  %55 = load i32, ptr %54, align 4, !tbaa !20
  %56 = and i32 %55, 8388608
  %57 = icmp ne i32 %56, 0
  br i1 %57, label %59, label %58

58:                                               ; preds = %51, %38
  store i32 1, ptr %3, align 4
  store i32 1, ptr %8, align 4
  br label %130

59:                                               ; preds = %51
  %60 = load ptr, ptr %6, align 8, !tbaa !40
  %61 = getelementptr inbounds nuw %struct._zend_closure, ptr %60, i32 0, i32 2
  %62 = call zeroext i8 @zval_get_type(ptr noundef %61)
  %63 = zext i8 %62 to i32
  %64 = load ptr, ptr %7, align 8, !tbaa !40
  %65 = getelementptr inbounds nuw %struct._zend_closure, ptr %64, i32 0, i32 2
  %66 = call zeroext i8 @zval_get_type(ptr noundef %65)
  %67 = zext i8 %66 to i32
  %68 = icmp ne i32 %63, %67
  br i1 %68, label %69, label %70

69:                                               ; preds = %59
  store i32 1, ptr %3, align 4
  store i32 1, ptr %8, align 4
  br label %130

70:                                               ; preds = %59
  %71 = load ptr, ptr %6, align 8, !tbaa !40
  %72 = getelementptr inbounds nuw %struct._zend_closure, ptr %71, i32 0, i32 2
  %73 = call zeroext i8 @zval_get_type(ptr noundef %72)
  %74 = zext i8 %73 to i32
  %75 = icmp eq i32 %74, 8
  br i1 %75, label %76, label %87

76:                                               ; preds = %70
  %77 = load ptr, ptr %6, align 8, !tbaa !40
  %78 = getelementptr inbounds nuw %struct._zend_closure, ptr %77, i32 0, i32 2
  %79 = getelementptr inbounds nuw %struct._zval_struct, ptr %78, i32 0, i32 0
  %80 = load ptr, ptr %79, align 8, !tbaa !20
  %81 = load ptr, ptr %7, align 8, !tbaa !40
  %82 = getelementptr inbounds nuw %struct._zend_closure, ptr %81, i32 0, i32 2
  %83 = getelementptr inbounds nuw %struct._zval_struct, ptr %82, i32 0, i32 0
  %84 = load ptr, ptr %83, align 8, !tbaa !20
  %85 = icmp ne ptr %80, %84
  br i1 %85, label %86, label %87

86:                                               ; preds = %76
  store i32 1, ptr %3, align 4
  store i32 1, ptr %8, align 4
  br label %130

87:                                               ; preds = %76, %70
  %88 = load ptr, ptr %6, align 8, !tbaa !40
  %89 = getelementptr inbounds nuw %struct._zend_closure, ptr %88, i32 0, i32 3
  %90 = load ptr, ptr %89, align 8, !tbaa !42
  %91 = load ptr, ptr %7, align 8, !tbaa !40
  %92 = getelementptr inbounds nuw %struct._zend_closure, ptr %91, i32 0, i32 3
  %93 = load ptr, ptr %92, align 8, !tbaa !42
  %94 = icmp ne ptr %90, %93
  br i1 %94, label %95, label %96

95:                                               ; preds = %87
  store i32 1, ptr %3, align 4
  store i32 1, ptr %8, align 4
  br label %130

96:                                               ; preds = %87
  %97 = load ptr, ptr %6, align 8, !tbaa !40
  %98 = getelementptr inbounds nuw %struct._zend_closure, ptr %97, i32 0, i32 1
  %99 = load i8, ptr %98, align 8, !tbaa !20
  %100 = zext i8 %99 to i32
  %101 = load ptr, ptr %7, align 8, !tbaa !40
  %102 = getelementptr inbounds nuw %struct._zend_closure, ptr %101, i32 0, i32 1
  %103 = load i8, ptr %102, align 8, !tbaa !20
  %104 = zext i8 %103 to i32
  %105 = icmp ne i32 %100, %104
  br i1 %105, label %106, label %107

106:                                              ; preds = %96
  store i32 1, ptr %3, align 4
  store i32 1, ptr %8, align 4
  br label %130

107:                                              ; preds = %96
  %108 = load ptr, ptr %6, align 8, !tbaa !40
  %109 = getelementptr inbounds nuw %struct._zend_closure, ptr %108, i32 0, i32 1
  %110 = getelementptr inbounds nuw %struct.anon.3, ptr %109, i32 0, i32 4
  %111 = load ptr, ptr %110, align 8, !tbaa !20
  %112 = load ptr, ptr %7, align 8, !tbaa !40
  %113 = getelementptr inbounds nuw %struct._zend_closure, ptr %112, i32 0, i32 1
  %114 = getelementptr inbounds nuw %struct.anon.3, ptr %113, i32 0, i32 4
  %115 = load ptr, ptr %114, align 8, !tbaa !20
  %116 = icmp ne ptr %111, %115
  br i1 %116, label %117, label %118

117:                                              ; preds = %107
  store i32 1, ptr %3, align 4
  store i32 1, ptr %8, align 4
  br label %130

118:                                              ; preds = %107
  %119 = load ptr, ptr %6, align 8, !tbaa !40
  %120 = getelementptr inbounds nuw %struct._zend_closure, ptr %119, i32 0, i32 1
  %121 = getelementptr inbounds nuw %struct.anon.3, ptr %120, i32 0, i32 3
  %122 = load ptr, ptr %121, align 8, !tbaa !20
  %123 = load ptr, ptr %7, align 8, !tbaa !40
  %124 = getelementptr inbounds nuw %struct._zend_closure, ptr %123, i32 0, i32 1
  %125 = getelementptr inbounds nuw %struct.anon.3, ptr %124, i32 0, i32 3
  %126 = load ptr, ptr %125, align 8, !tbaa !20
  %127 = call zeroext i1 @zend_string_equals(ptr noundef %122, ptr noundef %126)
  br i1 %127, label %129, label %128

128:                                              ; preds = %118
  store i32 1, ptr %3, align 4
  store i32 1, ptr %8, align 4
  br label %130

129:                                              ; preds = %118
  store i32 0, ptr %3, align 4
  store i32 1, ptr %8, align 4
  br label %130

130:                                              ; preds = %129, %128, %117, %106, %95, %86, %69, %58
  call void @llvm.lifetime.end.p0(i64 8, ptr %7) #11
  call void @llvm.lifetime.end.p0(i64 8, ptr %6) #11
  br label %131

131:                                              ; preds = %130, %34
  %132 = load i32, ptr %3, align 4
  ret i32 %132
}