; Function Attrs: nounwind uwtable
define internal i32 @zend_closure_compare(ptr noundef %0, ptr noundef %1) #0 {
  %3 = getelementptr inbounds nuw i8, ptr %0, i64 8
  %4 = load i8, ptr %3, align 8, !tbaa !15
  %.not = icmp eq i8 %4, 8
  br i1 %.not, label %5, label %19

5:                                                ; preds = %2
  %6 = getelementptr inbounds nuw i8, ptr %1, i64 8
  %7 = load i8, ptr %6, align 8, !tbaa !15
  %.not23 = icmp eq i8 %7, 8
  br i1 %.not23, label %8, label %19

8:                                                ; preds = %5
  %9 = load ptr, ptr %0, align 8, !tbaa !15
  %10 = getelementptr inbounds nuw i8, ptr %9, i64 24
  %11 = load ptr, ptr %10, align 8, !tbaa !101
  %12 = getelementptr inbounds nuw i8, ptr %11, i64 184
  %13 = load ptr, ptr %12, align 8, !tbaa !96
  %14 = load ptr, ptr %1, align 8, !tbaa !15
  %15 = getelementptr inbounds nuw i8, ptr %14, i64 24
  %16 = load ptr, ptr %15, align 8, !tbaa !101
  %17 = getelementptr inbounds nuw i8, ptr %16, i64 184
  %18 = load ptr, ptr %17, align 8, !tbaa !96
  %.not24 = icmp eq ptr %13, %18
  br i1 %.not24, label %21, label %19

19:                                               ; preds = %8, %5, %2
  %20 = tail call i32 @zend_std_compare_objects(ptr noundef nonnull %0, ptr noundef %1) #13
  br label %zend_string_equals.exit.thread33

21:                                               ; preds = %8
  %22 = getelementptr inbounds nuw i8, ptr %9, i64 56
  %23 = getelementptr inbounds nuw i8, ptr %9, i64 60
  %24 = load i32, ptr %23, align 4, !tbaa !15
  %25 = and i32 %24, 8388608
  %.not25 = icmp eq i32 %25, 0
  br i1 %.not25, label %zend_string_equals.exit.thread33, label %26

26:                                               ; preds = %21
  %27 = getelementptr inbounds nuw i8, ptr %14, i64 56
  %28 = getelementptr inbounds nuw i8, ptr %14, i64 60
  %29 = load i32, ptr %28, align 4, !tbaa !15
  %30 = and i32 %29, 8388608
  %.not26 = icmp eq i32 %30, 0
  br i1 %.not26, label %zend_string_equals.exit.thread33, label %31

31:                                               ; preds = %26
  %32 = getelementptr inbounds nuw i8, ptr %9, i64 312
  %33 = getelementptr inbounds nuw i8, ptr %9, i64 320
  %34 = load i8, ptr %33, align 8, !tbaa !15
  %35 = getelementptr inbounds nuw i8, ptr %14, i64 312
  %36 = getelementptr inbounds nuw i8, ptr %14, i64 320
  %37 = load i8, ptr %36, align 8, !tbaa !15
  %.not27 = icmp eq i8 %34, %37
  br i1 %.not27, label %38, label %zend_string_equals.exit.thread33

38:                                               ; preds = %31
  %39 = icmp eq i8 %34, 8
  br i1 %39, label %40, label %43

40:                                               ; preds = %38
  %41 = load ptr, ptr %32, align 8, !tbaa !15
  %42 = load ptr, ptr %35, align 8, !tbaa !15
  %.not28 = icmp eq ptr %41, %42
  br i1 %.not28, label %43, label %zend_string_equals.exit.thread33

43:                                               ; preds = %40, %38
  %44 = getelementptr inbounds nuw i8, ptr %9, i64 328
  %45 = load ptr, ptr %44, align 8, !tbaa !18
  %46 = getelementptr inbounds nuw i8, ptr %14, i64 328
  %47 = load ptr, ptr %46, align 8, !tbaa !18
  %.not29 = icmp eq ptr %45, %47
  br i1 %.not29, label %48, label %zend_string_equals.exit.thread33

48:                                               ; preds = %43
  %49 = load i8, ptr %22, align 8, !tbaa !15
  %50 = load i8, ptr %27, align 8, !tbaa !15
  %.not30 = icmp eq i8 %49, %50
  br i1 %.not30, label %51, label %zend_string_equals.exit.thread33

51:                                               ; preds = %48
  %52 = getelementptr inbounds nuw i8, ptr %9, i64 72
  %53 = load ptr, ptr %52, align 8, !tbaa !15
  %54 = getelementptr inbounds nuw i8, ptr %14, i64 72
  %55 = load ptr, ptr %54, align 8, !tbaa !15
  %.not31 = icmp eq ptr %53, %55
  br i1 %.not31, label %56, label %zend_string_equals.exit.thread33

56:                                               ; preds = %51
  %57 = getelementptr inbounds nuw i8, ptr %9, i64 64
  %58 = load ptr, ptr %57, align 8, !tbaa !15
  %59 = getelementptr inbounds nuw i8, ptr %14, i64 64
  %60 = load ptr, ptr %59, align 8, !tbaa !15
  %61 = icmp eq ptr %58, %60
  br i1 %61, label %zend_string_equals.exit.thread, label %62

62:                                               ; preds = %56
  %63 = getelementptr inbounds nuw i8, ptr %58, i64 16
  %64 = load i64, ptr %63, align 8, !tbaa !68
  %65 = getelementptr inbounds nuw i8, ptr %60, i64 16
  %66 = load i64, ptr %65, align 8, !tbaa !68
  %67 = icmp eq i64 %64, %66
  br i1 %67, label %zend_string_equals.exit, label %zend_string_equals.exit.thread33

zend_string_equals.exit:                          ; preds = %62
  %68 = tail call zeroext i1 @zend_string_equal_val(ptr noundef nonnull %58, ptr noundef nonnull %60) #13
  %cond.fr = freeze i1 %68
  br i1 %cond.fr, label %zend_string_equals.exit.thread, label %zend_string_equals.exit.thread33

zend_string_equals.exit.thread:                   ; preds = %56, %zend_string_equals.exit
  br label %zend_string_equals.exit.thread33

zend_string_equals.exit.thread33:                 ; preds = %62, %zend_string_equals.exit.thread, %zend_string_equals.exit, %26, %21, %31, %40, %43, %48, %51, %19
  %.0 = phi i32 [ %20, %19 ], [ 1, %26 ], [ 1, %21 ], [ 1, %31 ], [ 1, %40 ], [ 1, %43 ], [ 1, %48 ], [ 1, %51 ], [ 0, %zend_string_equals.exit.thread ], [ 1, %zend_string_equals.exit ], [ 1, %62 ]
  ret i32 %.0
}